target datalayout = "e-m:e-p270:32:32-p271:32:32-p272:64:64-i64:64-i128:128-f80:128-n8:16:32:64-S128"
target triple = "x86_64-pc-linux-gnu"

%struct.dt_pthread_mutex_t = type { %union.pthread_mutex_t }
%union.pthread_mutex_t = type { %struct.__pthread_mutex_s }
%struct.__pthread_mutex_s = type { i32, i32, i32, i32, i32, i16, i16, %struct.__pthread_internal_list }
%struct.__pthread_internal_list = type { ptr, ptr }
%struct.dt_dev_pixelpipe_t = type { %struct.dt_dev_pixelpipe_cache_t, i32, i64, ptr, i32, i32, float, i32, i32, [12 x i8], %struct.dt_iop_buffer_dsc_t, ptr, ptr, ptr, ptr, i32, i32, i32, i32, ptr, i64, i32, i32, float, float, float, i64, %struct.dt_pthread_mutex_t, %struct.dt_pthread_mutex_t, %struct.dt_pthread_mutex_t, i32, i32, i32, %struct.dt_dev_detail_mask_t, i32, i32, i32, i32, i32, i32, i32, i32, i32, i32, i32, i32, i32, i32, [8 x i8], %struct.dt_image_t, i32, ptr, i32, ptr, ptr, ptr, i32, ptr, i64, [8 x i8] }
%struct.dt_dev_pixelpipe_cache_t = type { i32, i64, i64, ptr, ptr, ptr, ptr, ptr, ptr, i64, i32, i64, i64, i32, i32, i32 }
%struct.dt_iop_buffer_dsc_t = type { i32, i32, i32, [6 x [6 x i8]], %struct.anon, [12 x i8], %struct.anon.0, [4 x float], i32, [12 x i8] }
%struct.anon = type { i16, i16 }
%struct.anon.0 = type { i32, [12 x i8], [4 x float] }
%struct.dt_dev_detail_mask_t = type { %struct.dt_iop_roi_t, i64, ptr }
%struct.dt_iop_roi_t = type { i32, i32, i32, i32, float }
%struct.dt_image_t = type { i32, i32, float, float, float, float, float, float, float, [64 x i8], [64 x i8], [128 x i8], [64 x i8], [64 x i8], [64 x i8], [64 x i8], i64, i32, %union.dt_image_correction_data_t, [64 x i8], [64 x i8], [64 x i8], [128 x i8], i32, [256 x i8], i32, i32, i32, i32, i32, i32, i32, i32, i32, i32, float, i32, i32, i32, i32, i32, i32, i64, i64, i64, i64, i32, [12 x i8], %struct.dt_iop_buffer_dsc_t, [9 x float], ptr, i32, i32, %struct.dt_image_raw_parameters_t, %struct.dt_image_geoloc_t, %struct._color_harmony_t, i16, [4 x i16], i32, i32, float, float, [4 x float], [4 x [3 x float]], [4 x float], ptr, ptr, i32, i32, [8 x i8] }
%union.dt_image_correction_data_t = type { %struct.anon.2 }
%struct.anon.2 = type { i32, float, [11 x float], [11 x float], [11 x float], [11 x float], [11 x float] }
%struct.dt_image_raw_parameters_t = type { i32 }
%struct.dt_image_geoloc_t = type { double, double, double }
%struct._color_harmony_t = type { i32, i32, i32 }

; Function Attrs: inlinehint nounwind uwtable
define internal i32 @dt_pthread_mutex_init(ptr noundef %0, ptr noundef %1) #6 {
  %3 = alloca ptr, align 8
  %4 = alloca ptr, align 8
  store ptr %0, ptr %3, align 8, !tbaa !190
  store ptr %1, ptr %4, align 8, !tbaa !33
  %5 = load ptr, ptr %3, align 8, !tbaa !190
  %6 = getelementptr inbounds nuw %struct.dt_pthread_mutex_t, ptr %5, i32 0, i32 0
  %7 = load ptr, ptr %4, align 8, !tbaa !33
  %8 = call i32 @pthread_mutex_init(ptr noundef %6, ptr noundef %7) #17
  ret i32 %8
}

; Function Attrs: inlinehint nounwind uwtable
define available_externally void @dt_atomic_set_int(ptr noundef %0, i32 noundef %1) #6 {
  %3 = alloca ptr, align 8
  %4 = alloca i32, align 4
  %5 = alloca i32, align 4
  store ptr %0, ptr %3, align 8, !tbaa !33
  store i32 %1, ptr %4, align 4, !tbaa !11
  %6 = load ptr, ptr %3, align 8, !tbaa !33
  %7 = load i32, ptr %4, align 4, !tbaa !11
  store i32 %7, ptr %5, align 4, !tbaa !11
  %8 = load i32, ptr %5, align 4
  store atomic i32 %8, ptr %6 seq_cst, align 4
  ret void
}

; Function Attrs: nounwind uwtable
define i32 @dt_dev_pixelpipe_init_cached(ptr noundef %0, i64 noundef %1, i32 noundef %2, i64 noundef %3) #0 {
  %5 = alloca ptr, align 8
  %6 = alloca i64, align 8
  %7 = alloca i32, align 4
  %8 = alloca i64, align 8
  store ptr %0, ptr %5, align 8, !tbaa !6
  store i64 %1, ptr %6, align 8, !tbaa !13
  store i32 %2, ptr %7, align 4, !tbaa !11
  store i64 %3, ptr %8, align 8, !tbaa !13
  %9 = load ptr, ptr %5, align 8, !tbaa !6
  %10 = getelementptr inbounds nuw %struct.dt_dev_pixelpipe_t, ptr %9, i32 0, i32 47
  store i32 -1, ptr %10, align 4, !tbaa !152
  %11 = load ptr, ptr %5, align 8, !tbaa !6
  %12 = getelementptr inbounds nuw %struct.dt_dev_pixelpipe_t, ptr %11, i32 0, i32 17
  store i32 0, ptr %12, align 8, !tbaa !153
  %13 = load ptr, ptr %5, align 8, !tbaa !6
  %14 = getelementptr inbounds nuw %struct.dt_dev_pixelpipe_t, ptr %13, i32 0, i32 18
  store i32 0, ptr %14, align 4, !tbaa !154
  %15 = load ptr, ptr %5, align 8, !tbaa !6
  %16 = getelementptr inbounds nuw %struct.dt_dev_pixelpipe_t, ptr %15, i32 0, i32 15
  store i32 0, ptr %16, align 16, !tbaa !155
  %17 = load ptr, ptr %5, align 8, !tbaa !6
  %18 = getelementptr inbounds nuw %struct.dt_dev_pixelpipe_t, ptr %17, i32 0, i32 16
  store i32 0, ptr %18, align 4, !tbaa !156
  %19 = load ptr, ptr %5, align 8, !tbaa !6
  %20 = getelementptr inbounds nuw %struct.dt_dev_pixelpipe_t, ptr %19, i32 0, i32 30
  store i32 0, ptr %20, align 8, !tbaa !157
  %21 = load ptr, ptr %5, align 8, !tbaa !6
  %22 = getelementptr inbounds nuw %struct.dt_dev_pixelpipe_t, ptr %21, i32 0, i32 4
  store i32 0, ptr %22, align 16, !tbaa !158
  %23 = load ptr, ptr %5, align 8, !tbaa !6
  %24 = getelementptr inbounds nuw %struct.dt_dev_pixelpipe_t, ptr %23, i32 0, i32 21
  store i32 0, ptr %24, align 16, !tbaa !159
  %25 = load ptr, ptr %5, align 8, !tbaa !6
  %26 = getelementptr inbounds nuw %struct.dt_dev_pixelpipe_t, ptr %25, i32 0, i32 7
  store i32 0, ptr %26, align 4, !tbaa !160
  %27 = load ptr, ptr %5, align 8, !tbaa !6
  %28 = getelementptr inbounds nuw %struct.dt_dev_pixelpipe_t, ptr %27, i32 0, i32 31
  store i32 0, ptr %28, align 4, !tbaa !161
  %29 = load ptr, ptr %5, align 8, !tbaa !6
  %30 = getelementptr inbounds nuw %struct.dt_dev_pixelpipe_t, ptr %29, i32 0, i32 5
  store i32 0, ptr %30, align 4, !tbaa !162
  %31 = load ptr, ptr %5, align 8, !tbaa !6
  %32 = getelementptr inbounds nuw %struct.dt_dev_pixelpipe_t, ptr %31, i32 0, i32 22
  store i32 0, ptr %32, align 4, !tbaa !163
  %33 = load ptr, ptr %5, align 8, !tbaa !6
  %34 = getelementptr inbounds nuw %struct.dt_dev_pixelpipe_t, ptr %33, i32 0, i32 8
  store i32 0, ptr %34, align 16, !tbaa !164
  %35 = load ptr, ptr %5, align 8, !tbaa !6
  %36 = getelementptr inbounds nuw %struct.dt_dev_pixelpipe_t, ptr %35, i32 0, i32 14
  store ptr null, ptr %36, align 8, !tbaa !90
  %37 = load i64, ptr %6, align 8, !tbaa !13
  %38 = load ptr, ptr %5, align 8, !tbaa !6
  %39 = getelementptr inbounds nuw %struct.dt_dev_pixelpipe_t, ptr %38, i32 0, i32 20
  store i64 %37, ptr %39, align 8, !tbaa !165
  %40 = load ptr, ptr %5, align 8, !tbaa !6
  %41 = getelementptr inbounds nuw %struct.dt_dev_pixelpipe_t, ptr %40, i32 0, i32 1
  store i32 0, ptr %41, align 8, !tbaa !166
  %42 = load ptr, ptr %5, align 8, !tbaa !6
  %43 = getelementptr inbounds nuw %struct.dt_dev_pixelpipe_t, ptr %42, i32 0, i32 19
  store ptr null, ptr %43, align 16, !tbaa !167
  %44 = load ptr, ptr %5, align 8, !tbaa !6
  %45 = getelementptr inbounds nuw %struct.dt_dev_pixelpipe_t, ptr %44, i32 0, i32 23
  store float 0.000000e+00, ptr %45, align 8, !tbaa !168
  %46 = load ptr, ptr %5, align 8, !tbaa !6
  %47 = getelementptr inbounds nuw %struct.dt_dev_pixelpipe_t, ptr %46, i32 0, i32 24
  store float 0.000000e+00, ptr %47, align 4, !tbaa !169
  %48 = load ptr, ptr %5, align 8, !tbaa !6
  %49 = getelementptr inbounds nuw %struct.dt_dev_pixelpipe_t, ptr %48, i32 0, i32 25
  store float 0.000000e+00, ptr %49, align 16, !tbaa !170
  %50 = load ptr, ptr %5, align 8, !tbaa !6
  %51 = getelementptr inbounds nuw %struct.dt_dev_pixelpipe_t, ptr %50, i32 0, i32 35
  store i32 0, ptr %51, align 4, !tbaa !171
  %52 = load ptr, ptr %5, align 8, !tbaa !6
  %53 = getelementptr inbounds nuw %struct.dt_dev_pixelpipe_t, ptr %52, i32 0, i32 33
  call void @llvm.memset.p0.i64(ptr align 8 %53, i8 0, i64 40, i1 false)
  %54 = load ptr, ptr %5, align 8, !tbaa !6
  %55 = getelementptr inbounds nuw %struct.dt_dev_pixelpipe_t, ptr %54, i32 0, i32 32
  store i32 0, ptr %55, align 16, !tbaa !89
  %56 = load ptr, ptr %5, align 8, !tbaa !6
  %57 = getelementptr inbounds nuw %struct.dt_dev_pixelpipe_t, ptr %56, i32 0, i32 36
  store i32 0, ptr %57, align 8, !tbaa !172
  %58 = load ptr, ptr %5, align 8, !tbaa !6
  %59 = getelementptr inbounds nuw %struct.dt_dev_pixelpipe_t, ptr %58, i32 0, i32 37
  call void @dt_atomic_set_int(ptr noundef %59, i32 noundef 0)
  %60 = load ptr, ptr %5, align 8, !tbaa !6
  %61 = getelementptr inbounds nuw %struct.dt_dev_pixelpipe_t, ptr %60, i32 0, i32 39
  store i32 0, ptr %61, align 4, !tbaa !173
  %62 = load ptr, ptr %5, align 8, !tbaa !6
  %63 = getelementptr inbounds nuw %struct.dt_dev_pixelpipe_t, ptr %62, i32 0, i32 40
  store i32 0, ptr %63, align 8, !tbaa !174
  %64 = load ptr, ptr %5, align 8, !tbaa !6
  %65 = getelementptr inbounds nuw %struct.dt_dev_pixelpipe_t, ptr %64, i32 0, i32 41
  store i32 0, ptr %65, align 4, !tbaa !132
  %66 = load ptr, ptr %5, align 8, !tbaa !6
  %67 = getelementptr inbounds nuw %struct.dt_dev_pixelpipe_t, ptr %66, i32 0, i32 42
  store i32 0, ptr %67, align 16, !tbaa !145
  %68 = load ptr, ptr %5, align 8, !tbaa !6
  %69 = getelementptr inbounds nuw %struct.dt_dev_pixelpipe_t, ptr %68, i32 0, i32 43
  store i32 0, ptr %69, align 4, !tbaa !175
  %70 = load ptr, ptr %5, align 8, !tbaa !6
  %71 = getelementptr inbounds nuw %struct.dt_dev_pixelpipe_t, ptr %70, i32 0, i32 46
  store i32 256, ptr %71, align 16, !tbaa !150
  %72 = load ptr, ptr %5, align 8, !tbaa !6
  %73 = getelementptr inbounds nuw %struct.dt_dev_pixelpipe_t, ptr %72, i32 0, i32 27
  %74 = call i32 @dt_pthread_mutex_init(ptr noundef %73, ptr noundef null)
  %75 = load ptr, ptr %5, align 8, !tbaa !6
  %76 = getelementptr inbounds nuw %struct.dt_dev_pixelpipe_t, ptr %75, i32 0, i32 28
  %77 = call i32 @dt_pthread_mutex_init(ptr noundef %76, ptr noundef null)
  %78 = load ptr, ptr %5, align 8, !tbaa !6
  %79 = getelementptr inbounds nuw %struct.dt_dev_pixelpipe_t, ptr %78, i32 0, i32 29
  %80 = call i32 @dt_pthread_mutex_init(ptr noundef %79, ptr noundef null)
  %81 = load ptr, ptr %5, align 8, !tbaa !6
  %82 = getelementptr inbounds nuw %struct.dt_dev_pixelpipe_t, ptr %81, i32 0, i32 50
  store i32 -1, ptr %82, align 16, !tbaa !176
  %83 = load ptr, ptr %5, align 8, !tbaa !6
  %84 = getelementptr inbounds nuw %struct.dt_dev_pixelpipe_t, ptr %83, i32 0, i32 51
  store ptr null, ptr %84, align 8, !tbaa !177
  %85 = load ptr, ptr %5, align 8, !tbaa !6
  %86 = getelementptr inbounds nuw %struct.dt_dev_pixelpipe_t, ptr %85, i32 0, i32 52
  store i32 4, ptr %86, align 16, !tbaa !178
  %87 = load ptr, ptr %5, align 8, !tbaa !6
  %88 = getelementptr inbounds nuw %struct.dt_dev_pixelpipe_t, ptr %87, i32 0, i32 53
  store ptr null, ptr %88, align 8, !tbaa !179
  %89 = load ptr, ptr %5, align 8, !tbaa !6
  %90 = getelementptr inbounds nuw %struct.dt_dev_pixelpipe_t, ptr %89, i32 0, i32 54
  store ptr null, ptr %90, align 16, !tbaa !180
  %91 = load ptr, ptr %5, align 8, !tbaa !6
  %92 = getelementptr inbounds nuw %struct.dt_dev_pixelpipe_t, ptr %91, i32 0, i32 55
  store ptr null, ptr %92, align 8, !tbaa !181
  %93 = load ptr, ptr %5, align 8, !tbaa !6
  %94 = getelementptr inbounds nuw %struct.dt_dev_pixelpipe_t, ptr %93, i32 0, i32 56
  store i32 0, ptr %94, align 16, !tbaa !151
  %95 = load ptr, ptr %5, align 8, !tbaa !6
  %96 = getelementptr inbounds nuw %struct.dt_dev_pixelpipe_t, ptr %95, i32 0, i32 11
  store ptr null, ptr %96, align 16, !tbaa !182
  %97 = load ptr, ptr %5, align 8, !tbaa !6
  %98 = getelementptr inbounds nuw %struct.dt_dev_pixelpipe_t, ptr %97, i32 0, i32 12
  store ptr null, ptr %98, align 8, !tbaa !183
  %99 = load ptr, ptr %5, align 8, !tbaa !6
  %100 = getelementptr inbounds nuw %struct.dt_dev_pixelpipe_t, ptr %99, i32 0, i32 13
  store ptr null, ptr %100, align 16, !tbaa !184
  %101 = load ptr, ptr %5, align 8, !tbaa !6
  %102 = getelementptr inbounds nuw %struct.dt_dev_pixelpipe_t, ptr %101, i32 0, i32 2
  store i64 0, ptr %102, align 16, !tbaa !86
  %103 = load ptr, ptr %5, align 8, !tbaa !6
  %104 = getelementptr inbounds nuw %struct.dt_dev_pixelpipe_t, ptr %103, i32 0, i32 57
  store ptr null, ptr %104, align 8, !tbaa !185
  %105 = load ptr, ptr %5, align 8, !tbaa !6
  %106 = getelementptr inbounds nuw %struct.dt_dev_pixelpipe_t, ptr %105, i32 0, i32 58
  store i64 0, ptr %106, align 16, !tbaa !186
  %107 = load ptr, ptr %5, align 8, !tbaa !6
  %108 = load i32, ptr %7, align 4, !tbaa !11
  %109 = load i64, ptr %6, align 8, !tbaa !13
  %110 = load i64, ptr %8, align 8, !tbaa !13
  %111 = call i32 @dt_dev_pixelpipe_cache_init(ptr noundef %107, i32 noundef %108, i64 noundef %109, i64 noundef %110)
  ret i32 %111
}

; Function Attrs: nounwind uwtable
define i32 @dt_dev_pixelpipe_init_thumbnail(ptr noundef %0, i32 noundef %1, i32 noundef %2) #0 {
  %4 = alloca ptr, align 8
  %5 = alloca i32, align 4
  %6 = alloca i32, align 4
  %7 = alloca i32, align 4
  store ptr %0, ptr %4, align 8, !tbaa !6
  store i32 %1, ptr %5, align 4, !tbaa !11
  store i32 %2, ptr %6, align 4, !tbaa !11
  call void @llvm.lifetime.start.p0(i64 4, ptr %7) #17
  %8 = load ptr, ptr %4, align 8, !tbaa !6
  %9 = load i32, ptr %5, align 4, !tbaa !11
  %10 = sext i32 %9 to i64
  %11 = mul i64 16, %10
  %12 = load i32, ptr %6, align 4, !tbaa !11
  %13 = sext i32 %12 to i64
  %14 = mul i64 %11, %13
  %15 = call i32 @dt_dev_pixelpipe_init_cached(ptr noundef %8, i64 noundef %14, i32 noundef 2, i64 noundef 0)
  store i32 %15, ptr %7, align 4, !tbaa !11
  %16 = load ptr, ptr %4, align 8, !tbaa !6
  %17 = getelementptr inbounds nuw %struct.dt_dev_pixelpipe_t, ptr %16, i32 0, i32 45
  store i32 8, ptr %17, align 4, !tbaa !34
  %18 = load i32, ptr %7, align 4, !tbaa !11
  call void @llvm.lifetime.end.p0(i64 4, ptr %7) #17
  ret i32 %18
}