; Function Attrs: nounwind uwtable
define range(i32 0, 2) i32 @dt_dev_pixelpipe_init_thumbnail(ptr noundef initializes((120, 124), (144, 152), (156, 164), (328, 388), (520, 532), (536, 576), (580, 588), (628, 632)) %0, i32 noundef %1, i32 noundef %2) local_unnamed_addr #0 {
  %4 = sext i32 %1 to i64
  %5 = shl nsw i64 %4, 4
  %6 = sext i32 %2 to i64
  %7 = mul i64 %5, %6
  %8 = getelementptr inbounds nuw i8, ptr %0, i64 628
  store i32 -1, ptr %8, align 4, !tbaa !137
  %9 = getelementptr inbounds nuw i8, ptr %0, i64 520
  store i32 0, ptr %9, align 8, !tbaa !138
  %10 = getelementptr inbounds nuw i8, ptr %0, i64 144
  store i32 0, ptr %10, align 16, !tbaa !139
  %11 = getelementptr inbounds nuw i8, ptr %0, i64 368
  store i32 0, ptr %11, align 16, !tbaa !140
  %12 = getelementptr inbounds nuw i8, ptr %0, i64 156
  store i32 0, ptr %12, align 4, !tbaa !141
  %13 = getelementptr inbounds nuw i8, ptr %0, i64 524
  store i32 0, ptr %13, align 4, !tbaa !142
  %14 = getelementptr inbounds nuw i8, ptr %0, i64 148
  store i32 0, ptr %14, align 4, !tbaa !143
  %15 = getelementptr inbounds nuw i8, ptr %0, i64 372
  store i32 0, ptr %15, align 4, !tbaa !144
  %16 = getelementptr inbounds nuw i8, ptr %0, i64 160
  store i32 0, ptr %16, align 16, !tbaa !145
  %17 = getelementptr inbounds nuw i8, ptr %0, i64 328
  %18 = getelementptr inbounds nuw i8, ptr %0, i64 360
  tail call void @llvm.memset.p0.i64(ptr noundef nonnull align 8 dereferenceable(24) %17, i8 0, i64 24, i1 false)
  store i64 %7, ptr %18, align 8, !tbaa !146
  %19 = getelementptr inbounds nuw i8, ptr %0, i64 120
  store i32 0, ptr %19, align 8, !tbaa !147
  %20 = getelementptr inbounds nuw i8, ptr %0, i64 352
  store ptr null, ptr %20, align 16, !tbaa !148
  %21 = getelementptr inbounds nuw i8, ptr %0, i64 376
  store float 0.000000e+00, ptr %21, align 8, !tbaa !149
  %22 = getelementptr inbounds nuw i8, ptr %0, i64 380
  store float 0.000000e+00, ptr %22, align 4, !tbaa !150
  %23 = getelementptr inbounds nuw i8, ptr %0, i64 384
  store float 0.000000e+00, ptr %23, align 16, !tbaa !151
  %24 = getelementptr inbounds nuw i8, ptr %0, i64 580
  store i32 0, ptr %24, align 4, !tbaa !152
  %25 = getelementptr inbounds nuw i8, ptr %0, i64 536
  tail call void @llvm.memset.p0.i64(ptr noundef nonnull align 8 dereferenceable(40) %25, i8 0, i64 40, i1 false)
  %26 = getelementptr inbounds nuw i8, ptr %0, i64 528
  store i32 0, ptr %26, align 16, !tbaa !83
  %27 = getelementptr inbounds nuw i8, ptr %0, i64 584
  store i32 0, ptr %27, align 8, !tbaa !153
  %28 = getelementptr inbounds nuw i8, ptr %0, i64 588
  store atomic i32 0, ptr %28 seq_cst, align 4
  %29 = getelementptr inbounds nuw i8, ptr %0, i64 596
  %30 = getelementptr inbounds nuw i8, ptr %0, i64 624
  tail call void @llvm.memset.p0.i64(ptr noundef nonnull align 4 dereferenceable(20) %29, i8 0, i64 20, i1 false)
  store i32 256, ptr %30, align 16, !tbaa !154
  %31 = getelementptr inbounds nuw i8, ptr %0, i64 400
  %32 = tail call i32 @pthread_mutex_init(ptr noundef nonnull %31, ptr noundef null) #27
  %33 = getelementptr inbounds nuw i8, ptr %0, i64 440
  %34 = tail call i32 @pthread_mutex_init(ptr noundef nonnull %33, ptr noundef null) #27
  %35 = getelementptr inbounds nuw i8, ptr %0, i64 480
  %36 = tail call i32 @pthread_mutex_init(ptr noundef nonnull %35, ptr noundef null) #27
  %37 = getelementptr inbounds nuw i8, ptr %0, i64 2496
  store i32 -1, ptr %37, align 16, !tbaa !155
  %38 = getelementptr inbounds nuw i8, ptr %0, i64 2504
  store ptr null, ptr %38, align 8, !tbaa !156
  %39 = getelementptr inbounds nuw i8, ptr %0, i64 2512
  store i32 4, ptr %39, align 16, !tbaa !157
  %40 = getelementptr inbounds nuw i8, ptr %0, i64 2520
  %41 = getelementptr inbounds nuw i8, ptr %0, i64 304
  %42 = getelementptr inbounds nuw i8, ptr %0, i64 128
  store i64 0, ptr %42, align 16, !tbaa !81
  %43 = getelementptr inbounds nuw i8, ptr %0, i64 2552
  tail call void @llvm.memset.p0.i64(ptr noundef nonnull align 16 dereferenceable(24) %41, i8 0, i64 24, i1 false)
  tail call void @llvm.memset.p0.i64(ptr noundef nonnull align 8 dereferenceable(28) %40, i8 0, i64 28, i1 false)
  tail call void @llvm.memset.p0.i64(ptr noundef nonnull align 8 dereferenceable(16) %43, i8 0, i64 16, i1 false)
  %44 = tail call range(i32 0, 2) i32 @dt_dev_pixelpipe_cache_init(ptr noundef %0, i32 noundef 2, i64 noundef %7, i64 noundef 0)
  %45 = getelementptr inbounds nuw i8, ptr %0, i64 620
  store i32 8, ptr %45, align 4, !tbaa !28
  ret i32 %44
}